Certificate:
    Data:
        Version: 3 (0x2)
        Serial Number: 1 (0x1)
    Signature Algorithm: sha1WithRSAEncryption
        Issuer: CN=test.cesanta.com, O=Cesanta, OU=testing
        Validity
            Not Before: Feb 24 21:16:34 2016 GMT
            Not After : Nov 23 21:16:34 2025 GMT
        Subject: CN=some.random.user
        Subject Public Key Info:
            Public Key Algorithm: rsaEncryption
                Public-Key: (1024 bit)
                Modulus:
                    00:af:12:5b:bd:db:de:40:7d:80:ff:d0:34:03:7c:
                    7f:6e:92:55:a0:1f:9b:8a:d5:52:05:d3:35:a8:ac:
                    15:73:2e:8a:b7:4c:d4:93:0f:56:ad:ed:05:47:cc:
                    1b:b2:38:57:73:13:99:f9:16:ac:b1:a7:eb:69:b1:
                    cd:f5:22:44:31:2c:f5:bd:fd:3d:ed:ff:e8:b3:f4:
                    c9:02:d5:38:99:86:fa:de:34:60:70:43:ac:9d:ca:
                    2d:f7:30:ee:57:7c:70:ac:0e:02:9e:c4:5d:b9:7f:
                    ee:48:5e:f5:e7:c4:c6:ed:a2:fd:b9:76:fc:3d:15:
                    b4:32:96:cf:66:1d:ec:01:33
                Exponent: 65537 (0x10001)
        X509v3 extensions:
            X509v3 Basic Constraints: 
                CA:FALSE
            X509v3 Key Usage: 
                Key Encipherment, Key Agreement
            X509v3 Extended Key Usage: 
                TLS Web Client Authentication
    Signature Algorithm: sha1WithRSAEncryption
         76:79:ee:23:d0:ce:d0:29:66:5d:6d:4d:69:10:dc:4d:bb:8a:
         8b:cf:78:f9:9b:79:65:86:aa:e9:35:57:a1:bf:9f:72:da:c4:
         ad:33:0b:b1:d4:ba:86:5e:68:0c:89:9b:b7:7f:3a:cc:83:4e:
         67:7f:5d:30:a8:f9:64:2c:74:4a:19:60:f4:98:3c:75:c3:30:
         ec:97:f6:3a:73:88:f5:8e:42:6e:59:80:b7:0e:ca:58:1e:a3:
         d7:1a:8b:1f:ad:bf:84:7b:ef:71:6c:1a:15:52:48:ea:c7:d4:
         3b:70:aa:65:2b:2d:8f:dd:cf:70:2a:87:e9:f2:47:d0:07:5f:
         13:0a
-----BEGIN CERTIFICATE-----
MIIB/zCCAWigAwIBAgIBATANBgkqhkiG9w0BAQUFADA/MRkwFwYDVQQDDBB0ZXN0
LmNlc2FudGEuY29tMRAwDgYDVQQKDAdDZXNhbnRhMRAwDgYDVQQLDAd0ZXN0aW5n
MB4XDTE2MDIyNDIxMTYzNFoXDTI1MTEyMzIxMTYzNFowGzEZMBcGA1UEAwwQc29t
ZS5yYW5kb20udXNlcjCBnzANBgkqhkiG9w0BAQEFAAOBjQAwgYkCgYEArxJbvdve
QH2A/9A0A3x/bpJVoB+bitVSBdM1qKwVcy6Kt0zUkw9Wre0FR8wbsjhXcxOZ+Ras
safrabHN9SJEMSz1vf097f/os/TJAtU4mYb63jRgcEOsncot9zDuV3xwrA4CnsRd
uX/uSF7158TG7aL9uXb8PRW0MpbPZh3sATMCAwEAAaMvMC0wCQYDVR0TBAIwADAL
BgNVHQ8EBAMCAygwEwYDVR0lBAwwCgYIKwYBBQUHAwIwDQYJKoZIhvcNAQEFBQAD
gYEAdnnuI9DO0ClmXW1NaRDcTbuKi894+Zt5ZYaq6TVXob+fctrErTMLsdS6hl5o
DImbt386zINOZ39dMKj5ZCx0Shlg9Jg8dcMw7Jf2OnOI9Y5CblmAtw7KWB6j1xqL
H62/hHvvcWwaFVJI6sfUO3CqZSstj93PcCqH6fJH0AdfEwo=
-----END CERTIFICATE-----
