Certificate:
    Data:
        Version: 3 (0x2)
        Serial Number: 12019507274102978380 (0xa6cdde2f0821b74c)
    Signature Algorithm: sha256WithRSAEncryption
        Issuer: CN=test.cesanta.com, O=Cesanta, OU=testing
        Validity
            Not Before: Feb 24 21:16:34 2016 GMT
            Not After : Feb 21 21:16:34 2026 GMT
        Subject: CN=test.cesanta.com, O=Cesanta, OU=testing
        Subject Public Key Info:
            Public Key Algorithm: rsaEncryption
                Public-Key: (1024 bit)
                Modulus:
                    00:b4:98:a8:11:4d:98:c5:17:23:23:22:7f:90:76:
                    65:15:ff:af:05:cc:ed:bd:90:72:a7:3b:bf:69:42:
                    98:ae:c1:9a:4f:3e:7d:15:1e:6b:77:80:c5:60:97:
                    d8:b3:75:d2:37:74:64:30:c8:07:ca:dc:d9:22:24:
                    49:82:bf:99:ea:bd:fa:29:51:30:90:67:92:34:73:
                    98:8e:c0:06:0f:3c:96:7f:70:97:12:68:4c:df:cf:
                    31:5b:ab:ae:e8:78:51:95:89:06:ec:a4:09:1b:f6:
                    96:d8:01:6d:c4:dc:f2:27:af:96:e6:19:44:62:1e:
                    49:03:11:6f:bf:5d:7d:72:7b
                Exponent: 65537 (0x10001)
        X509v3 extensions:
            X509v3 Subject Key Identifier: 
                CE:E2:34:FC:46:BE:D2:28:1A:3B:E9:83:10:2F:CF:E4:96:06:A5:E2
            X509v3 Authority Key Identifier: 
                keyid:CE:E2:34:FC:46:BE:D2:28:1A:3B:E9:83:10:2F:CF:E4:96:06:A5:E2

            X509v3 Basic Constraints: 
                CA:TRUE
    Signature Algorithm: sha256WithRSAEncryption
         99:dc:bc:ce:08:cb:c9:0b:a3:b2:7e:e4:da:d8:04:80:29:3f:
         8d:32:a2:cf:c9:a6:66:4d:b9:2c:cd:72:6f:d2:5d:fc:8e:0a:
         be:09:d2:fe:b1:23:14:82:41:17:a1:b7:5c:6c:c0:1e:dd:86:
         f7:45:e3:21:0e:cd:af:53:f5:17:1b:38:b0:0a:7c:34:3b:27:
         d8:4b:62:da:79:0e:b6:2c:10:5d:42:36:9f:6b:43:b3:f7:24:
         7a:e2:79:d3:4c:f4:21:6d:f3:c9:70:0b:3f:37:32:f2:1b:a9:
         b8:6c:ae:f7:e5:e1:cb:2c:fe:07:0c:a4:16:2a:1a:6a:44:61:
         d3:f1
-----BEGIN CERTIFICATE-----
MIICTDCCAbWgAwIBAgIJAKbN3i8IIbdMMA0GCSqGSIb3DQEBCwUAMD8xGTAXBgNV
BAMMEHRlc3QuY2VzYW50YS5jb20xEDAOBgNVBAoMB0Nlc2FudGExEDAOBgNVBAsM
B3Rlc3RpbmcwHhcNMTYwMjI0MjExNjM0WhcNMjYwMjIxMjExNjM0WjA/MRkwFwYD
VQQDDBB0ZXN0LmNlc2FudGEuY29tMRAwDgYDVQQKDAdDZXNhbnRhMRAwDgYDVQQL
DAd0ZXN0aW5nMIGfMA0GCSqGSIb3DQEBAQUAA4GNADCBiQKBgQC0mKgRTZjFFyMj
In+QdmUV/68FzO29kHKnO79pQpiuwZpPPn0VHmt3gMVgl9izddI3dGQwyAfK3Nki
JEmCv5nqvfopUTCQZ5I0c5iOwAYPPJZ/cJcSaEzfzzFbq67oeFGViQbspAkb9pbY
AW3E3PInr5bmGURiHkkDEW+/XX1yewIDAQABo1AwTjAdBgNVHQ4EFgQUzuI0/Ea+
0igaO+mDEC/P5JYGpeIwHwYDVR0jBBgwFoAUzuI0/Ea+0igaO+mDEC/P5JYGpeIw
DAYDVR0TBAUwAwEB/zANBgkqhkiG9w0BAQsFAAOBgQCZ3LzOCMvJC6OyfuTa2ASA
KT+NMqLPyaZmTbkszXJv0l38jgq+CdL+sSMUgkEXobdcbMAe3Yb3ReMhDs2vU/UX
GziwCnw0OyfYS2LaeQ62LBBdQjafa0Oz9yR64nnTTPQhbfPJcAs/NzLyG6m4bK73
5eHLLP4HDKQWKhpqRGHT8Q==
-----END CERTIFICATE-----
